
./debug.elf:     file format elf64-littleriscv


Disassembly of section .text:

0000000080002000 <exception_handler>:
# ============================================================================
# Exception Handler
# ============================================================================
exception_handler:
    # Save registers once to avoid nesting
    SAVE_T_REGS framework_temp_save_area
    80002000:	340f9073          	csrw	mscratch,t6
    80002004:	00002f97          	auipc	t6,0x2
    80002008:	444f8f93          	addi	t6,t6,1092 # 80004448 <framework_temp_save_area>
    8000200c:	005fb023          	sd	t0,0(t6)
    80002010:	006fb423          	sd	t1,8(t6)
    80002014:	007fb823          	sd	t2,16(t6)
    80002018:	01cfbc23          	sd	t3,24(t6)
    8000201c:	03dfb023          	sd	t4,32(t6)
    80002020:	03efb423          	sd	t5,40(t6)
    80002024:	34002f73          	csrr	t5,mscratch
    80002028:	03efb823          	sd	t5,48(t6)
    8000202c:	028fbf03          	ld	t5,40(t6)
    80002030:	34002ff3          	csrr	t6,mscratch
    
    # Dump exception CSR information - use RAW version to avoid additional save/restore
    # 这一行必须存在, 可以用任何HTIF_PRINT操作替换(比如framework_temp_save_area, x0, 0), 都会导致最后x19不同, 删除则会最后rocket和spike中x19的值相同
    DUMP_EXCEPTION_CSRS_RAW
    80002034:	00002297          	auipc	t0,0x2
    80002038:	3cc28293          	addi	t0,t0,972 # 80004400 <exception_csr_dump_buffer>
    8000203c:	30002373          	csrr	t1,mstatus
    80002040:	0062b023          	sd	t1,0(t0)
    80002044:	34202373          	csrr	t1,mcause
    80002048:	0062b423          	sd	t1,8(t0)
    8000204c:	34102373          	csrr	t1,mepc
    80002050:	0062b823          	sd	t1,16(t0)
    80002054:	34302373          	csrr	t1,mtval
    80002058:	0062bc23          	sd	t1,24(t0)
    8000205c:	30402373          	csrr	t1,mie
    80002060:	0262b023          	sd	t1,32(t0)
    80002064:	34402373          	csrr	t1,mip
    80002068:	0262b423          	sd	t1,40(t0)
    8000206c:	30502373          	csrr	t1,mtvec
    80002070:	0262b823          	sd	t1,48(t0)
    80002074:	34002373          	csrr	t1,mscratch
    80002078:	0262bc23          	sd	t1,56(t0)
    8000207c:	f1402373          	csrr	t1,mhartid
    80002080:	0462b023          	sd	t1,64(t0)
    80002084:	00001297          	auipc	t0,0x1
    80002088:	f7c28293          	addi	t0,t0,-132 # 80003000 <htif_communication_buffer>
    8000208c:	04000313          	li	t1,64
    80002090:	0062b023          	sd	t1,0(t0)
    80002094:	4305                	li	t1,1
    80002096:	0062b423          	sd	t1,8(t0)
    8000209a:	00001317          	auipc	t1,0x1
    8000209e:	fbe30313          	addi	t1,t1,-66 # 80003058 <exc_csr_dump_prefix>
    800020a2:	0062b823          	sd	t1,16(t0)
    800020a6:	4321                	li	t1,8
    800020a8:	0062bc23          	sd	t1,24(t0)
    800020ac:	0ff0000f          	fence
    800020b0:	ffffe317          	auipc	t1,0xffffe
    800020b4:	f5030313          	addi	t1,t1,-176 # 80000000 <tohost>
    800020b8:	00533023          	sd	t0,0(t1)

00000000800020bc <wait_htif_print_2>:
    800020bc:	ffffe397          	auipc	t2,0xffffe
    800020c0:	f4c38393          	addi	t2,t2,-180 # 80000008 <fromhost>
    800020c4:	0003be03          	ld	t3,0(t2)
    800020c8:	fe0e0ae3          	beqz	t3,800020bc <wait_htif_print_2>
    800020cc:	0003b023          	sd	zero,0(t2)
    800020d0:	0ff0000f          	fence
    800020d4:	00001297          	auipc	t0,0x1
    800020d8:	f2c28293          	addi	t0,t0,-212 # 80003000 <htif_communication_buffer>
    800020dc:	04000313          	li	t1,64
    800020e0:	0062b023          	sd	t1,0(t0)
    800020e4:	4305                	li	t1,1
    800020e6:	0062b423          	sd	t1,8(t0)
    800020ea:	00002317          	auipc	t1,0x2
    800020ee:	31630313          	addi	t1,t1,790 # 80004400 <exception_csr_dump_buffer>
    800020f2:	0062b823          	sd	t1,16(t0)
    800020f6:	04800313          	li	t1,72
    800020fa:	0062bc23          	sd	t1,24(t0)
    800020fe:	0ff0000f          	fence
    80002102:	ffffe317          	auipc	t1,0xffffe
    80002106:	efe30313          	addi	t1,t1,-258 # 80000000 <tohost>
    8000210a:	00533023          	sd	t0,0(t1)

000000008000210e <wait_htif_print_3>:
    8000210e:	ffffe397          	auipc	t2,0xffffe
    80002112:	efa38393          	addi	t2,t2,-262 # 80000008 <fromhost>
    80002116:	0003be03          	ld	t3,0(t2)
    8000211a:	fe0e0ae3          	beqz	t3,8000210e <wait_htif_print_3>
    8000211e:	0003b023          	sd	zero,0(t2)
    80002122:	0ff0000f          	fence
    # Get exception instruction address
    csrr t0, mepc
    80002126:	341022f3          	csrr	t0,mepc
    
    # Read exception instruction content to determine length
    lhu t1, 0(t0)
    8000212a:	0002d303          	lhu	t1,0(t0)
    andi t2, t1, 0x3
    8000212e:	00337393          	andi	t2,t1,3
    li t3, 0x3
    80002132:	4e0d                	li	t3,3
    bne t2, t3, compressed_inst
    80002134:	01c39463          	bne	t2,t3,8000213c <compressed_inst>
    
    # Standard instruction (4 bytes)
    addi t0, t0, 4
    80002138:	0291                	addi	t0,t0,4
    j update_mepc
    8000213a:	a011                	j	8000213e <update_mepc>

000000008000213c <compressed_inst>:
    
compressed_inst:
    # Compressed instruction (2 bytes)
    addi t0, t0, 2
    8000213c:	0289                	addi	t0,t0,2

000000008000213e <update_mepc>:
    
update_mepc:
    csrw mepc, t0
    8000213e:	34129073          	csrw	mepc,t0
    csrwi mcause, 0
    80002142:	34205073          	csrwi	mcause,0
    csrwi mtval, 0
    80002146:	34305073          	csrwi	mtval,0
    csrwi mip, 0
    8000214a:	34405073          	csrwi	mip,0

    # Restore registers once
    RESTORE_T_REGS framework_temp_save_area
    8000214e:	00002f97          	auipc	t6,0x2
    80002152:	2faf8f93          	addi	t6,t6,762 # 80004448 <framework_temp_save_area>
    80002156:	000fb283          	ld	t0,0(t6)
    8000215a:	008fb303          	ld	t1,8(t6)
    8000215e:	010fb383          	ld	t2,16(t6)
    80002162:	018fbe03          	ld	t3,24(t6)
    80002166:	020fbe83          	ld	t4,32(t6)
    8000216a:	028fbf03          	ld	t5,40(t6)
    8000216e:	030fbf83          	ld	t6,48(t6)
    mret
    80002172:	30200073          	mret

0000000080002176 <_start>:
# Program Entry and Execution
# ============================================================================
_start:

_init:
    la t0, exception_handler
    80002176:	00000297          	auipc	t0,0x0
    8000217a:	e8a28293          	addi	t0,t0,-374 # 80002000 <exception_handler>
    csrw mtvec, t0
    8000217e:	30529073          	csrw	mtvec,t0

    RESET_MACHINE_STATE
    80002182:	4281                	li	t0,0
    80002184:	4301                	li	t1,0
    80002186:	30005073          	csrwi	mstatus,0
    8000218a:	30405073          	csrwi	mie,0
    8000218e:	34405073          	csrwi	mip,0
    80002192:	34105073          	csrwi	mepc,0
    80002196:	34205073          	csrwi	mcause,0
    8000219a:	34305073          	csrwi	mtval,0
    8000219e:	34005073          	csrwi	mscratch,0
    800021a2:	30205073          	csrwi	medeleg,0
    800021a6:	30305073          	csrwi	mideleg,0
    800021aa:	30605073          	csrwi	mcounteren,0
    800021ae:	10605073          	csrwi	scounteren,0
    800021b2:	32005073          	csrwi	mcountinhibit,0
    800021b6:	b0029073          	csrw	mcycle,t0
    800021ba:	b0229073          	csrw	minstret,t0
    800021be:	b0329073          	csrw	mhpmcounter3,t0
    800021c2:	32329073          	csrw	mhpmevent3,t0
    800021c6:	b0429073          	csrw	mhpmcounter4,t0
    800021ca:	32429073          	csrw	mhpmevent4,t0
    800021ce:	b0529073          	csrw	mhpmcounter5,t0
    800021d2:	32529073          	csrw	mhpmevent5,t0
    800021d6:	b0629073          	csrw	mhpmcounter6,t0
    800021da:	32629073          	csrw	mhpmevent6,t0
    800021de:	b0729073          	csrw	mhpmcounter7,t0
    800021e2:	32729073          	csrw	mhpmevent7,t0
    800021e6:	b0829073          	csrw	mhpmcounter8,t0
    800021ea:	32829073          	csrw	mhpmevent8,t0
    800021ee:	b0929073          	csrw	mhpmcounter9,t0
    800021f2:	32929073          	csrw	mhpmevent9,t0
    800021f6:	b0a29073          	csrw	mhpmcounter10,t0
    800021fa:	32a29073          	csrw	mhpmevent10,t0
    800021fe:	b0b29073          	csrw	mhpmcounter11,t0
    80002202:	32b29073          	csrw	mhpmevent11,t0
    80002206:	b0c29073          	csrw	mhpmcounter12,t0
    8000220a:	32c29073          	csrw	mhpmevent12,t0
    8000220e:	b0d29073          	csrw	mhpmcounter13,t0
    80002212:	32d29073          	csrw	mhpmevent13,t0
    80002216:	b0e29073          	csrw	mhpmcounter14,t0
    8000221a:	32e29073          	csrw	mhpmevent14,t0
    8000221e:	b0f29073          	csrw	mhpmcounter15,t0
    80002222:	32f29073          	csrw	mhpmevent15,t0
    80002226:	b1029073          	csrw	mhpmcounter16,t0
    8000222a:	33029073          	csrw	mhpmevent16,t0
    8000222e:	b1129073          	csrw	mhpmcounter17,t0
    80002232:	33129073          	csrw	mhpmevent17,t0
    80002236:	b1229073          	csrw	mhpmcounter18,t0
    8000223a:	33229073          	csrw	mhpmevent18,t0
    8000223e:	b1329073          	csrw	mhpmcounter19,t0
    80002242:	33329073          	csrw	mhpmevent19,t0
    80002246:	b1429073          	csrw	mhpmcounter20,t0
    8000224a:	33429073          	csrw	mhpmevent20,t0
    8000224e:	b1529073          	csrw	mhpmcounter21,t0
    80002252:	33529073          	csrw	mhpmevent21,t0
    80002256:	b1629073          	csrw	mhpmcounter22,t0
    8000225a:	33629073          	csrw	mhpmevent22,t0
    8000225e:	b1729073          	csrw	mhpmcounter23,t0
    80002262:	33729073          	csrw	mhpmevent23,t0
    80002266:	b1829073          	csrw	mhpmcounter24,t0
    8000226a:	33829073          	csrw	mhpmevent24,t0
    8000226e:	b1929073          	csrw	mhpmcounter25,t0
    80002272:	33929073          	csrw	mhpmevent25,t0
    80002276:	b1a29073          	csrw	mhpmcounter26,t0
    8000227a:	33a29073          	csrw	mhpmevent26,t0
    8000227e:	b1b29073          	csrw	mhpmcounter27,t0
    80002282:	33b29073          	csrw	mhpmevent27,t0
    80002286:	b1c29073          	csrw	mhpmcounter28,t0
    8000228a:	33c29073          	csrw	mhpmevent28,t0
    8000228e:	b1d29073          	csrw	mhpmcounter29,t0
    80002292:	33d29073          	csrw	mhpmevent29,t0
    80002296:	b1e29073          	csrw	mhpmcounter30,t0
    8000229a:	33e29073          	csrw	mhpmevent30,t0
    8000229e:	b1f29073          	csrw	mhpmcounter31,t0
    800022a2:	33f29073          	csrw	mhpmevent31,t0
    800022a6:	7a005073          	csrwi	tselect,0
    800022aa:	7a105073          	csrwi	tdata1,0
    800022ae:	7a205073          	csrwi	tdata2,0
    800022b2:	7a00d073          	csrwi	tselect,1
    800022b6:	7a105073          	csrwi	tdata1,0
    800022ba:	7a205073          	csrwi	tdata2,0
    800022be:	7a005073          	csrwi	tselect,0
    800022c2:	10005073          	csrwi	sstatus,0
    800022c6:	10405073          	csrwi	sie,0
    800022ca:	14405073          	csrwi	sip,0
    800022ce:	14105073          	csrwi	sepc,0
    800022d2:	14205073          	csrwi	scause,0
    800022d6:	14305073          	csrwi	stval,0
    800022da:	14005073          	csrwi	sscratch,0
    800022de:	10505073          	csrwi	stvec,0
    800022e2:	18005073          	csrwi	satp,0
    800022e6:	300022f3          	csrr	t0,mstatus
    800022ea:	6309                	lui	t1,0x2
    800022ec:	0062e2b3          	or	t0,t0,t1
    800022f0:	30029073          	csrw	mstatus,t0
    800022f4:	00305073          	csrwi	fcsr,0
    800022f8:	f2000053          	fmv.d.x	ft0,zero
    800022fc:	f20000d3          	fmv.d.x	ft1,zero
    80002300:	f2000153          	fmv.d.x	ft2,zero
    80002304:	f20001d3          	fmv.d.x	ft3,zero
    80002308:	f2000253          	fmv.d.x	ft4,zero
    8000230c:	f20002d3          	fmv.d.x	ft5,zero
    80002310:	f2000353          	fmv.d.x	ft6,zero
    80002314:	f20003d3          	fmv.d.x	ft7,zero
    80002318:	f2000453          	fmv.d.x	fs0,zero
    8000231c:	f20004d3          	fmv.d.x	fs1,zero
    80002320:	f2000553          	fmv.d.x	fa0,zero
    80002324:	f20005d3          	fmv.d.x	fa1,zero
    80002328:	f2000653          	fmv.d.x	fa2,zero
    8000232c:	f20006d3          	fmv.d.x	fa3,zero
    80002330:	f2000753          	fmv.d.x	fa4,zero
    80002334:	f20007d3          	fmv.d.x	fa5,zero
    80002338:	f2000853          	fmv.d.x	fa6,zero
    8000233c:	f20008d3          	fmv.d.x	fa7,zero
    80002340:	f2000953          	fmv.d.x	fs2,zero
    80002344:	f20009d3          	fmv.d.x	fs3,zero
    80002348:	f2000a53          	fmv.d.x	fs4,zero
    8000234c:	f2000ad3          	fmv.d.x	fs5,zero
    80002350:	f2000b53          	fmv.d.x	fs6,zero
    80002354:	f2000bd3          	fmv.d.x	fs7,zero
    80002358:	f2000c53          	fmv.d.x	fs8,zero
    8000235c:	f2000cd3          	fmv.d.x	fs9,zero
    80002360:	f2000d53          	fmv.d.x	fs10,zero
    80002364:	f2000dd3          	fmv.d.x	fs11,zero
    80002368:	f2000e53          	fmv.d.x	ft8,zero
    8000236c:	f2000ed3          	fmv.d.x	ft9,zero
    80002370:	f2000f53          	fmv.d.x	ft10,zero
    80002374:	f2000fd3          	fmv.d.x	ft11,zero
    80002378:	60005073          	csrwi	hstatus,0
    8000237c:	60205073          	csrwi	hedeleg,0
    80002380:	60305073          	csrwi	hideleg,0
    80002384:	60405073          	csrwi	hie,0
    80002388:	64405073          	csrwi	hip,0
    8000238c:	60705073          	csrwi	hgeie,0
    80002390:	64305073          	csrwi	htval,0
    80002394:	64a05073          	csrwi	htinst,0
    80002398:	68005073          	csrwi	hgatp,0
    8000239c:	60605073          	csrwi	hcounteren,0
    800023a0:	4281                	li	t0,0
    800023a2:	20005073          	csrwi	vsstatus,0
    800023a6:	20405073          	csrwi	vsie,0
    800023aa:	24405073          	csrwi	vsip,0
    800023ae:	20505073          	csrwi	vstvec,0
    800023b2:	24005073          	csrwi	vsscratch,0
    800023b6:	24105073          	csrwi	vsepc,0
    800023ba:	24205073          	csrwi	vscause,0
    800023be:	24305073          	csrwi	vstval,0
    800023c2:	28005073          	csrwi	vsatp,0
    800023c6:	00000093          	li	ra,0
    800023ca:	00000113          	li	sp,0
    800023ce:	00000193          	li	gp,0
    800023d2:	00000213          	li	tp,0
    800023d6:	00000293          	li	t0,0
    800023da:	00000313          	li	t1,0
    800023de:	00000393          	li	t2,0
    800023e2:	00000413          	li	s0,0
    800023e6:	00000493          	li	s1,0
    800023ea:	00000513          	li	a0,0
    800023ee:	00000593          	li	a1,0
    800023f2:	00000613          	li	a2,0
    800023f6:	00000693          	li	a3,0
    800023fa:	00000713          	li	a4,0
    800023fe:	00000793          	li	a5,0
    80002402:	00000813          	li	a6,0
    80002406:	00000893          	li	a7,0
    8000240a:	00000913          	li	s2,0
    8000240e:	00000993          	li	s3,0
    80002412:	00000a13          	li	s4,0
    80002416:	00000a93          	li	s5,0
    8000241a:	00000b13          	li	s6,0
    8000241e:	00000b93          	li	s7,0
    80002422:	00000c13          	li	s8,0
    80002426:	00000c93          	li	s9,0
    8000242a:	00000d13          	li	s10,0
    8000242e:	00000d93          	li	s11,0
    80002432:	00000e13          	li	t3,0
    80002436:	00000e93          	li	t4,0
    8000243a:	00000f13          	li	t5,0
    8000243e:	00000f93          	li	t6,0

0000000080002442 <_user_code>:

_user_code:
    # 这一行必须存在, 删除则会最后rocket和spike中x19的值相同
    csrrwi x22, 0x2d0, 0 # rocket + spike: 没有触发异常
    80002442:	2d005b73          	csrrwi	s6,0x2d0,0

    csrrwi x19, 0xb02, 12 # rocket + spike: 没有触发异常
    80002446:	b02659f3          	csrrwi	s3,minstret,12

    DUMP_GPR framework_temp_save_area, x19, 19 # 在rocket和spike中数值不同
    8000244a:	340f9073          	csrw	mscratch,t6
    8000244e:	00002f97          	auipc	t6,0x2
    80002452:	ffaf8f93          	addi	t6,t6,-6 # 80004448 <framework_temp_save_area>
    80002456:	005fb023          	sd	t0,0(t6)
    8000245a:	006fb423          	sd	t1,8(t6)
    8000245e:	007fb823          	sd	t2,16(t6)
    80002462:	01cfbc23          	sd	t3,24(t6)
    80002466:	03dfb023          	sd	t4,32(t6)
    8000246a:	03efb423          	sd	t5,40(t6)
    8000246e:	34002f73          	csrr	t5,mscratch
    80002472:	03efb823          	sd	t5,48(t6)
    80002476:	028fbf03          	ld	t5,40(t6)
    8000247a:	34002ff3          	csrr	t6,mscratch
    8000247e:	00002297          	auipc	t0,0x2
    80002482:	00a28293          	addi	t0,t0,10 # 80004488 <single_reg_dump_buffer>
    80002486:	00001317          	auipc	t1,0x1
    8000248a:	bc230313          	addi	t1,t1,-1086 # 80003048 <single_reg_dump_prefix_gpr>
    8000248e:	00033303          	ld	t1,0(t1)
    80002492:	0062b023          	sd	t1,0(t0)
    80002496:	434d                	li	t1,19
    80002498:	0062b423          	sd	t1,8(t0)
    8000249c:	0132b823          	sd	s3,16(t0)
    800024a0:	00001297          	auipc	t0,0x1
    800024a4:	b6028293          	addi	t0,t0,-1184 # 80003000 <htif_communication_buffer>
    800024a8:	04000313          	li	t1,64
    800024ac:	0062b023          	sd	t1,0(t0)
    800024b0:	4305                	li	t1,1
    800024b2:	0062b423          	sd	t1,8(t0)
    800024b6:	00002317          	auipc	t1,0x2
    800024ba:	fd230313          	addi	t1,t1,-46 # 80004488 <single_reg_dump_buffer>
    800024be:	0062b823          	sd	t1,16(t0)
    800024c2:	4361                	li	t1,24
    800024c4:	0062bc23          	sd	t1,24(t0)
    800024c8:	0ff0000f          	fence
    800024cc:	ffffe317          	auipc	t1,0xffffe
    800024d0:	b3430313          	addi	t1,t1,-1228 # 80000000 <tohost>
    800024d4:	00533023          	sd	t0,0(t1)

00000000800024d8 <wait_htif_print_9>:
    800024d8:	ffffe397          	auipc	t2,0xffffe
    800024dc:	b3038393          	addi	t2,t2,-1232 # 80000008 <fromhost>
    800024e0:	0003be03          	ld	t3,0(t2)
    800024e4:	fe0e0ae3          	beqz	t3,800024d8 <wait_htif_print_9>
    800024e8:	0003b023          	sd	zero,0(t2)
    800024ec:	0ff0000f          	fence
    800024f0:	00002f97          	auipc	t6,0x2
    800024f4:	f58f8f93          	addi	t6,t6,-168 # 80004448 <framework_temp_save_area>
    800024f8:	000fb283          	ld	t0,0(t6)
    800024fc:	008fb303          	ld	t1,8(t6)
    80002500:	010fb383          	ld	t2,16(t6)
    80002504:	018fbe03          	ld	t3,24(t6)
    80002508:	020fbe83          	ld	t4,32(t6)
    8000250c:	028fbf03          	ld	t5,40(t6)
    80002510:	030fbf83          	ld	t6,48(t6)

0000000080002514 <_exit>:

_exit:
    EXIT_SIM
    80002514:	4285                	li	t0,1
    80002516:	ffffe317          	auipc	t1,0xffffe
    8000251a:	aea30313          	addi	t1,t1,-1302 # 80000000 <tohost>
    8000251e:	00533023          	sd	t0,0(t1)

0000000080002522 <infinite_exit_loop_11>:
    80002522:	a001                	j	80002522 <infinite_exit_loop_11>
