
./debug.elf:     file format elf64-littleriscv


Disassembly of section .text:

0000000080002000 <exception_handler>:
# ============================================================================
# Exception Handler
# ============================================================================
exception_handler:
    # Save registers once to avoid nesting
    SAVE_T_REGS framework_temp_save_area
    80002000:	340f9073          	csrw	mscratch,t6
    80002004:	00002f97          	auipc	t6,0x2
    80002008:	444f8f93          	addi	t6,t6,1092 # 80004448 <framework_temp_save_area>
    8000200c:	005fb023          	sd	t0,0(t6)
    80002010:	006fb423          	sd	t1,8(t6)
    80002014:	007fb823          	sd	t2,16(t6)
    80002018:	01cfbc23          	sd	t3,24(t6)
    8000201c:	03dfb023          	sd	t4,32(t6)
    80002020:	03efb423          	sd	t5,40(t6)
    80002024:	34002f73          	csrr	t5,mscratch
    80002028:	03efb823          	sd	t5,48(t6)
    8000202c:	34002ff3          	csrr	t6,mscratch
    
    # Dump exception CSR information - use RAW version to avoid additional save/restore
    DUMP_EXCEPTION_CSRS_RAW
    80002030:	00002297          	auipc	t0,0x2
    80002034:	3d028293          	addi	t0,t0,976 # 80004400 <exception_csr_dump_buffer>
    80002038:	30002373          	csrr	t1,mstatus
    8000203c:	0062b023          	sd	t1,0(t0)
    80002040:	34202373          	csrr	t1,mcause
    80002044:	0062b423          	sd	t1,8(t0)
    80002048:	34102373          	csrr	t1,mepc
    8000204c:	0062b823          	sd	t1,16(t0)
    80002050:	34302373          	csrr	t1,mtval
    80002054:	0062bc23          	sd	t1,24(t0)
    80002058:	30402373          	csrr	t1,mie
    8000205c:	0262b023          	sd	t1,32(t0)
    80002060:	34402373          	csrr	t1,mip
    80002064:	0262b423          	sd	t1,40(t0)
    80002068:	30502373          	csrr	t1,mtvec
    8000206c:	0262b823          	sd	t1,48(t0)
    80002070:	34002373          	csrr	t1,mscratch
    80002074:	0262bc23          	sd	t1,56(t0)
    80002078:	f1402373          	csrr	t1,mhartid
    8000207c:	0462b023          	sd	t1,64(t0)
    80002080:	00001297          	auipc	t0,0x1
    80002084:	f8028293          	addi	t0,t0,-128 # 80003000 <htif_communication_buffer>
    80002088:	04000313          	li	t1,64
    8000208c:	0062b023          	sd	t1,0(t0)
    80002090:	4305                	li	t1,1
    80002092:	0062b423          	sd	t1,8(t0)
    80002096:	00001317          	auipc	t1,0x1
    8000209a:	fc230313          	addi	t1,t1,-62 # 80003058 <exc_csr_dump_prefix>
    8000209e:	0062b823          	sd	t1,16(t0)
    800020a2:	4321                	li	t1,8
    800020a4:	0062bc23          	sd	t1,24(t0)
    800020a8:	0ff0000f          	fence
    800020ac:	ffffe317          	auipc	t1,0xffffe
    800020b0:	f5430313          	addi	t1,t1,-172 # 80000000 <tohost>
    800020b4:	00533023          	sd	t0,0(t1)

00000000800020b8 <wait_htif_print_2>:
    800020b8:	ffffe397          	auipc	t2,0xffffe
    800020bc:	f5038393          	addi	t2,t2,-176 # 80000008 <fromhost>
    800020c0:	0003be03          	ld	t3,0(t2)
    800020c4:	fe0e0ae3          	beqz	t3,800020b8 <wait_htif_print_2>
    800020c8:	0003b023          	sd	zero,0(t2)
    800020cc:	0ff0000f          	fence
    800020d0:	00001297          	auipc	t0,0x1
    800020d4:	f3028293          	addi	t0,t0,-208 # 80003000 <htif_communication_buffer>
    800020d8:	04000313          	li	t1,64
    800020dc:	0062b023          	sd	t1,0(t0)
    800020e0:	4305                	li	t1,1
    800020e2:	0062b423          	sd	t1,8(t0)
    800020e6:	00002317          	auipc	t1,0x2
    800020ea:	31a30313          	addi	t1,t1,794 # 80004400 <exception_csr_dump_buffer>
    800020ee:	0062b823          	sd	t1,16(t0)
    800020f2:	04800313          	li	t1,72
    800020f6:	0062bc23          	sd	t1,24(t0)
    800020fa:	0ff0000f          	fence
    800020fe:	ffffe317          	auipc	t1,0xffffe
    80002102:	f0230313          	addi	t1,t1,-254 # 80000000 <tohost>
    80002106:	00533023          	sd	t0,0(t1)

000000008000210a <wait_htif_print_3>:
    8000210a:	ffffe397          	auipc	t2,0xffffe
    8000210e:	efe38393          	addi	t2,t2,-258 # 80000008 <fromhost>
    80002112:	0003be03          	ld	t3,0(t2)
    80002116:	fe0e0ae3          	beqz	t3,8000210a <wait_htif_print_3>
    8000211a:	0003b023          	sd	zero,0(t2)
    8000211e:	0ff0000f          	fence
    # Get exception instruction address
    csrr t0, mepc
    80002122:	341022f3          	csrr	t0,mepc
    
    # Read exception instruction content to determine length
    lhu t1, 0(t0)
    80002126:	0002d303          	lhu	t1,0(t0)
    andi t2, t1, 0x3
    8000212a:	00337393          	andi	t2,t1,3
    li t3, 0x3
    8000212e:	4e0d                	li	t3,3
    bne t2, t3, compressed_inst
    80002130:	01c39463          	bne	t2,t3,80002138 <compressed_inst>
    
    # Standard instruction (4 bytes)
    addi t0, t0, 4
    80002134:	0291                	addi	t0,t0,4
    j update_mepc
    80002136:	a011                	j	8000213a <update_mepc>

0000000080002138 <compressed_inst>:
    
compressed_inst:
    # Compressed instruction (2 bytes)
    addi t0, t0, 2
    80002138:	0289                	addi	t0,t0,2

000000008000213a <update_mepc>:
    
update_mepc:
    csrw mepc, t0
    8000213a:	34129073          	csrw	mepc,t0
    csrwi mcause, 0
    8000213e:	34205073          	csrwi	mcause,0
    csrwi mtval, 0
    80002142:	34305073          	csrwi	mtval,0
    csrwi mip, 0
    80002146:	34405073          	csrwi	mip,0

    # Restore registers once
    RESTORE_T_REGS framework_temp_save_area
    8000214a:	340f9073          	csrw	mscratch,t6
    8000214e:	00002f97          	auipc	t6,0x2
    80002152:	2faf8f93          	addi	t6,t6,762 # 80004448 <framework_temp_save_area>
    80002156:	000fb283          	ld	t0,0(t6)
    8000215a:	008fb303          	ld	t1,8(t6)
    8000215e:	010fb383          	ld	t2,16(t6)
    80002162:	018fbe03          	ld	t3,24(t6)
    80002166:	020fbe83          	ld	t4,32(t6)
    8000216a:	028fbf03          	ld	t5,40(t6)
    8000216e:	030fbf83          	ld	t6,48(t6)
    80002172:	34002ff3          	csrr	t6,mscratch
    mret
    80002176:	30200073          	mret

000000008000217a <_start>:
# Program Entry and Execution
# ============================================================================
_start:

_init:
    la t0, exception_handler
    8000217a:	00000297          	auipc	t0,0x0
    8000217e:	e8628293          	addi	t0,t0,-378 # 80002000 <exception_handler>
    csrw mtvec, t0
    80002182:	30529073          	csrw	mtvec,t0

    RESET_MACHINE_STATE
    80002186:	4281                	li	t0,0
    80002188:	4301                	li	t1,0
    8000218a:	30005073          	csrwi	mstatus,0
    8000218e:	30405073          	csrwi	mie,0
    80002192:	34405073          	csrwi	mip,0
    80002196:	34105073          	csrwi	mepc,0
    8000219a:	34205073          	csrwi	mcause,0
    8000219e:	34305073          	csrwi	mtval,0
    800021a2:	34005073          	csrwi	mscratch,0
    800021a6:	30205073          	csrwi	medeleg,0
    800021aa:	30305073          	csrwi	mideleg,0
    800021ae:	30605073          	csrwi	mcounteren,0
    800021b2:	10605073          	csrwi	scounteren,0
    800021b6:	32005073          	csrwi	mcountinhibit,0
    800021ba:	b0029073          	csrw	mcycle,t0
    800021be:	b0229073          	csrw	minstret,t0
    800021c2:	b0329073          	csrw	mhpmcounter3,t0
    800021c6:	32329073          	csrw	mhpmevent3,t0
    800021ca:	b0429073          	csrw	mhpmcounter4,t0
    800021ce:	32429073          	csrw	mhpmevent4,t0
    800021d2:	b0529073          	csrw	mhpmcounter5,t0
    800021d6:	32529073          	csrw	mhpmevent5,t0
    800021da:	b0629073          	csrw	mhpmcounter6,t0
    800021de:	32629073          	csrw	mhpmevent6,t0
    800021e2:	b0729073          	csrw	mhpmcounter7,t0
    800021e6:	32729073          	csrw	mhpmevent7,t0
    800021ea:	b0829073          	csrw	mhpmcounter8,t0
    800021ee:	32829073          	csrw	mhpmevent8,t0
    800021f2:	b0929073          	csrw	mhpmcounter9,t0
    800021f6:	32929073          	csrw	mhpmevent9,t0
    800021fa:	b0a29073          	csrw	mhpmcounter10,t0
    800021fe:	32a29073          	csrw	mhpmevent10,t0
    80002202:	b0b29073          	csrw	mhpmcounter11,t0
    80002206:	32b29073          	csrw	mhpmevent11,t0
    8000220a:	b0c29073          	csrw	mhpmcounter12,t0
    8000220e:	32c29073          	csrw	mhpmevent12,t0
    80002212:	b0d29073          	csrw	mhpmcounter13,t0
    80002216:	32d29073          	csrw	mhpmevent13,t0
    8000221a:	b0e29073          	csrw	mhpmcounter14,t0
    8000221e:	32e29073          	csrw	mhpmevent14,t0
    80002222:	b0f29073          	csrw	mhpmcounter15,t0
    80002226:	32f29073          	csrw	mhpmevent15,t0
    8000222a:	b1029073          	csrw	mhpmcounter16,t0
    8000222e:	33029073          	csrw	mhpmevent16,t0
    80002232:	b1129073          	csrw	mhpmcounter17,t0
    80002236:	33129073          	csrw	mhpmevent17,t0
    8000223a:	b1229073          	csrw	mhpmcounter18,t0
    8000223e:	33229073          	csrw	mhpmevent18,t0
    80002242:	b1329073          	csrw	mhpmcounter19,t0
    80002246:	33329073          	csrw	mhpmevent19,t0
    8000224a:	b1429073          	csrw	mhpmcounter20,t0
    8000224e:	33429073          	csrw	mhpmevent20,t0
    80002252:	b1529073          	csrw	mhpmcounter21,t0
    80002256:	33529073          	csrw	mhpmevent21,t0
    8000225a:	b1629073          	csrw	mhpmcounter22,t0
    8000225e:	33629073          	csrw	mhpmevent22,t0
    80002262:	b1729073          	csrw	mhpmcounter23,t0
    80002266:	33729073          	csrw	mhpmevent23,t0
    8000226a:	b1829073          	csrw	mhpmcounter24,t0
    8000226e:	33829073          	csrw	mhpmevent24,t0
    80002272:	b1929073          	csrw	mhpmcounter25,t0
    80002276:	33929073          	csrw	mhpmevent25,t0
    8000227a:	b1a29073          	csrw	mhpmcounter26,t0
    8000227e:	33a29073          	csrw	mhpmevent26,t0
    80002282:	b1b29073          	csrw	mhpmcounter27,t0
    80002286:	33b29073          	csrw	mhpmevent27,t0
    8000228a:	b1c29073          	csrw	mhpmcounter28,t0
    8000228e:	33c29073          	csrw	mhpmevent28,t0
    80002292:	b1d29073          	csrw	mhpmcounter29,t0
    80002296:	33d29073          	csrw	mhpmevent29,t0
    8000229a:	b1e29073          	csrw	mhpmcounter30,t0
    8000229e:	33e29073          	csrw	mhpmevent30,t0
    800022a2:	b1f29073          	csrw	mhpmcounter31,t0
    800022a6:	33f29073          	csrw	mhpmevent31,t0
    800022aa:	7a005073          	csrwi	tselect,0
    800022ae:	7a105073          	csrwi	tdata1,0
    800022b2:	7a205073          	csrwi	tdata2,0
    800022b6:	7a00d073          	csrwi	tselect,1
    800022ba:	7a105073          	csrwi	tdata1,0
    800022be:	7a205073          	csrwi	tdata2,0
    800022c2:	7a005073          	csrwi	tselect,0
    800022c6:	10005073          	csrwi	sstatus,0
    800022ca:	10405073          	csrwi	sie,0
    800022ce:	14405073          	csrwi	sip,0
    800022d2:	14105073          	csrwi	sepc,0
    800022d6:	14205073          	csrwi	scause,0
    800022da:	14305073          	csrwi	stval,0
    800022de:	14005073          	csrwi	sscratch,0
    800022e2:	10505073          	csrwi	stvec,0
    800022e6:	18005073          	csrwi	satp,0
    800022ea:	300022f3          	csrr	t0,mstatus
    800022ee:	6309                	lui	t1,0x2
    800022f0:	0062e2b3          	or	t0,t0,t1
    800022f4:	30029073          	csrw	mstatus,t0
    800022f8:	00305073          	csrwi	fcsr,0
    800022fc:	f2000053          	fmv.d.x	ft0,zero
    80002300:	f20000d3          	fmv.d.x	ft1,zero
    80002304:	f2000153          	fmv.d.x	ft2,zero
    80002308:	f20001d3          	fmv.d.x	ft3,zero
    8000230c:	f2000253          	fmv.d.x	ft4,zero
    80002310:	f20002d3          	fmv.d.x	ft5,zero
    80002314:	f2000353          	fmv.d.x	ft6,zero
    80002318:	f20003d3          	fmv.d.x	ft7,zero
    8000231c:	f2000453          	fmv.d.x	fs0,zero
    80002320:	f20004d3          	fmv.d.x	fs1,zero
    80002324:	f2000553          	fmv.d.x	fa0,zero
    80002328:	f20005d3          	fmv.d.x	fa1,zero
    8000232c:	f2000653          	fmv.d.x	fa2,zero
    80002330:	f20006d3          	fmv.d.x	fa3,zero
    80002334:	f2000753          	fmv.d.x	fa4,zero
    80002338:	f20007d3          	fmv.d.x	fa5,zero
    8000233c:	f2000853          	fmv.d.x	fa6,zero
    80002340:	f20008d3          	fmv.d.x	fa7,zero
    80002344:	f2000953          	fmv.d.x	fs2,zero
    80002348:	f20009d3          	fmv.d.x	fs3,zero
    8000234c:	f2000a53          	fmv.d.x	fs4,zero
    80002350:	f2000ad3          	fmv.d.x	fs5,zero
    80002354:	f2000b53          	fmv.d.x	fs6,zero
    80002358:	f2000bd3          	fmv.d.x	fs7,zero
    8000235c:	f2000c53          	fmv.d.x	fs8,zero
    80002360:	f2000cd3          	fmv.d.x	fs9,zero
    80002364:	f2000d53          	fmv.d.x	fs10,zero
    80002368:	f2000dd3          	fmv.d.x	fs11,zero
    8000236c:	f2000e53          	fmv.d.x	ft8,zero
    80002370:	f2000ed3          	fmv.d.x	ft9,zero
    80002374:	f2000f53          	fmv.d.x	ft10,zero
    80002378:	f2000fd3          	fmv.d.x	ft11,zero
    8000237c:	60005073          	csrwi	hstatus,0
    80002380:	60205073          	csrwi	hedeleg,0
    80002384:	60305073          	csrwi	hideleg,0
    80002388:	60405073          	csrwi	hie,0
    8000238c:	64405073          	csrwi	hip,0
    80002390:	60705073          	csrwi	hgeie,0
    80002394:	64305073          	csrwi	htval,0
    80002398:	64a05073          	csrwi	htinst,0
    8000239c:	68005073          	csrwi	hgatp,0
    800023a0:	60605073          	csrwi	hcounteren,0
    800023a4:	4281                	li	t0,0
    800023a6:	20005073          	csrwi	vsstatus,0
    800023aa:	20405073          	csrwi	vsie,0
    800023ae:	24405073          	csrwi	vsip,0
    800023b2:	20505073          	csrwi	vstvec,0
    800023b6:	24005073          	csrwi	vsscratch,0
    800023ba:	24105073          	csrwi	vsepc,0
    800023be:	24205073          	csrwi	vscause,0
    800023c2:	24305073          	csrwi	vstval,0
    800023c6:	28005073          	csrwi	vsatp,0
    800023ca:	00000093          	li	ra,0
    800023ce:	00000113          	li	sp,0
    800023d2:	00000193          	li	gp,0
    800023d6:	00000213          	li	tp,0
    800023da:	00000293          	li	t0,0
    800023de:	00000313          	li	t1,0
    800023e2:	00000393          	li	t2,0
    800023e6:	00000413          	li	s0,0
    800023ea:	00000493          	li	s1,0
    800023ee:	00000513          	li	a0,0
    800023f2:	00000593          	li	a1,0
    800023f6:	00000613          	li	a2,0
    800023fa:	00000693          	li	a3,0
    800023fe:	00000713          	li	a4,0
    80002402:	00000793          	li	a5,0
    80002406:	00000813          	li	a6,0
    8000240a:	00000893          	li	a7,0
    8000240e:	00000913          	li	s2,0
    80002412:	00000993          	li	s3,0
    80002416:	00000a13          	li	s4,0
    8000241a:	00000a93          	li	s5,0
    8000241e:	00000b13          	li	s6,0
    80002422:	00000b93          	li	s7,0
    80002426:	00000c13          	li	s8,0
    8000242a:	00000c93          	li	s9,0
    8000242e:	00000d13          	li	s10,0
    80002432:	00000d93          	li	s11,0
    80002436:	00000e13          	li	t3,0
    8000243a:	00000e93          	li	t4,0
    8000243e:	00000f13          	li	t5,0
    80002442:	00000f93          	li	t6,0

0000000080002446 <_user_code>:

_user_code:
    li x3, 0xDEADBEEF
    80002446:	000381b7          	lui	gp,0x38
    8000244a:	ab71819b          	addiw	gp,gp,-1353 # 37ab7 <DUMP_SIZE_WITH_FP+0x3781f>
    8000244e:	01ba                	slli	gp,gp,0xe
    80002450:	eef18193          	addi	gp,gp,-273
    li x9, 0xD
    80002454:	44b5                	li	s1,13

    li x31, 0x4 
    80002456:	4f91                	li	t6,4
    li t0, 0x1234ABCD
    80002458:	1234b2b7          	lui	t0,0x1234b
    8000245c:	bcd2829b          	addiw	t0,t0,-1075 # 1234abcd <DUMP_SIZE_WITH_FP+0x1234a935>
    sw t0, 0(x31) # Address 0x4: Spike triggers Store/AMO access fault, Rocket triggers Store/AMO access fault (both are access errors)
    80002460:	005fa023          	sw	t0,0(t6)
    lw t0, 0(x31) # Address 0x4: Spike triggers Load access fault, Rocket triggers Load access fault (both are access errors)
    80002464:	000fa283          	lw	t0,0(t6)
    amoxor.w.aqrl x3, x9, (x31) # Address 0x4: Spike triggers Store/AMO access fault, Rocket triggers Store/AMO access fault (both are access errors)
    80002468:	269fa1af          	amoxor.w.aqrl	gp,s1,(t6)
    DUMP_ALL_REGS framework_temp_save_area
    8000246c:	340f9073          	csrw	mscratch,t6
    80002470:	00002f97          	auipc	t6,0x2
    80002474:	fd8f8f93          	addi	t6,t6,-40 # 80004448 <framework_temp_save_area>
    80002478:	005fb023          	sd	t0,0(t6)
    8000247c:	006fb423          	sd	t1,8(t6)
    80002480:	007fb823          	sd	t2,16(t6)
    80002484:	01cfbc23          	sd	t3,24(t6)
    80002488:	03dfb023          	sd	t4,32(t6)
    8000248c:	03efb423          	sd	t5,40(t6)
    80002490:	34002f73          	csrr	t5,mscratch
    80002494:	03efb823          	sd	t5,48(t6)
    80002498:	34002ff3          	csrr	t6,mscratch
    8000249c:	340f9073          	csrw	mscratch,t6
    800024a0:	00002f97          	auipc	t6,0x2
    800024a4:	b60f8f93          	addi	t6,t6,-1184 # 80004000 <register_dump_buffer>
    800024a8:	000fb023          	sd	zero,0(t6)
    800024ac:	001fb423          	sd	ra,8(t6)
    800024b0:	002fb823          	sd	sp,16(t6)
    800024b4:	003fbc23          	sd	gp,24(t6)
    800024b8:	024fb023          	sd	tp,32(t6)
    800024bc:	025fb423          	sd	t0,40(t6)
    800024c0:	026fb823          	sd	t1,48(t6)
    800024c4:	027fbc23          	sd	t2,56(t6)
    800024c8:	048fb023          	sd	s0,64(t6)
    800024cc:	049fb423          	sd	s1,72(t6)
    800024d0:	04afb823          	sd	a0,80(t6)
    800024d4:	04bfbc23          	sd	a1,88(t6)
    800024d8:	06cfb023          	sd	a2,96(t6)
    800024dc:	06dfb423          	sd	a3,104(t6)
    800024e0:	06efb823          	sd	a4,112(t6)
    800024e4:	06ffbc23          	sd	a5,120(t6)
    800024e8:	090fb023          	sd	a6,128(t6)
    800024ec:	091fb423          	sd	a7,136(t6)
    800024f0:	092fb823          	sd	s2,144(t6)
    800024f4:	093fbc23          	sd	s3,152(t6)
    800024f8:	0b4fb023          	sd	s4,160(t6)
    800024fc:	0b5fb423          	sd	s5,168(t6)
    80002500:	0b6fb823          	sd	s6,176(t6)
    80002504:	0b7fbc23          	sd	s7,184(t6)
    80002508:	0d8fb023          	sd	s8,192(t6)
    8000250c:	0d9fb423          	sd	s9,200(t6)
    80002510:	0dafb823          	sd	s10,208(t6)
    80002514:	0dbfbc23          	sd	s11,216(t6)
    80002518:	0fcfb023          	sd	t3,224(t6)
    8000251c:	0fdfb423          	sd	t4,232(t6)
    80002520:	0fefb823          	sd	t5,240(t6)
    80002524:	34002f73          	csrr	t5,mscratch
    80002528:	0fefbc23          	sd	t5,248(t6)
    8000252c:	300022f3          	csrr	t0,mstatus
    80002530:	105fb023          	sd	t0,256(t6)
    80002534:	301022f3          	csrr	t0,misa
    80002538:	105fb423          	sd	t0,264(t6)
    8000253c:	302022f3          	csrr	t0,medeleg
    80002540:	105fb823          	sd	t0,272(t6)
    80002544:	303022f3          	csrr	t0,mideleg
    80002548:	105fbc23          	sd	t0,280(t6)
    8000254c:	304022f3          	csrr	t0,mie
    80002550:	125fb023          	sd	t0,288(t6)
    80002554:	305022f3          	csrr	t0,mtvec
    80002558:	125fb423          	sd	t0,296(t6)
    8000255c:	306022f3          	csrr	t0,mcounteren
    80002560:	125fb823          	sd	t0,304(t6)
    80002564:	340022f3          	csrr	t0,mscratch
    80002568:	125fbc23          	sd	t0,312(t6)
    8000256c:	341022f3          	csrr	t0,mepc
    80002570:	145fb023          	sd	t0,320(t6)
    80002574:	342022f3          	csrr	t0,mcause
    80002578:	145fb423          	sd	t0,328(t6)
    8000257c:	343022f3          	csrr	t0,mtval
    80002580:	145fb823          	sd	t0,336(t6)
    80002584:	344022f3          	csrr	t0,mip
    80002588:	145fbc23          	sd	t0,344(t6)
    8000258c:	b00022f3          	csrr	t0,mcycle
    80002590:	165fb023          	sd	t0,352(t6)
    80002594:	b02022f3          	csrr	t0,minstret
    80002598:	165fb423          	sd	t0,360(t6)
    8000259c:	f11022f3          	csrr	t0,mvendorid
    800025a0:	165fb823          	sd	t0,368(t6)
    800025a4:	f12022f3          	csrr	t0,marchid
    800025a8:	165fbc23          	sd	t0,376(t6)
    800025ac:	f13022f3          	csrr	t0,mimpid
    800025b0:	185fb023          	sd	t0,384(t6)
    800025b4:	f14022f3          	csrr	t0,mhartid
    800025b8:	185fb423          	sd	t0,392(t6)
    800025bc:	300022f3          	csrr	t0,mstatus
    800025c0:	6309                	lui	t1,0x2
    800025c2:	0062e333          	or	t1,t0,t1
    800025c6:	30031073          	csrw	mstatus,t1
    800025ca:	00302373          	frcsr	t1
    800025ce:	186fb823          	sd	t1,400(t6)
    800025d2:	180fbc27          	fsd	ft0,408(t6)
    800025d6:	1a1fb027          	fsd	ft1,416(t6)
    800025da:	1a2fb427          	fsd	ft2,424(t6)
    800025de:	1a3fb827          	fsd	ft3,432(t6)
    800025e2:	1a4fbc27          	fsd	ft4,440(t6)
    800025e6:	1c5fb027          	fsd	ft5,448(t6)
    800025ea:	1c6fb427          	fsd	ft6,456(t6)
    800025ee:	1c7fb827          	fsd	ft7,464(t6)
    800025f2:	1c8fbc27          	fsd	fs0,472(t6)
    800025f6:	1e9fb027          	fsd	fs1,480(t6)
    800025fa:	1eafb427          	fsd	fa0,488(t6)
    800025fe:	1ebfb827          	fsd	fa1,496(t6)
    80002602:	1ecfbc27          	fsd	fa2,504(t6)
    80002606:	20dfb027          	fsd	fa3,512(t6)
    8000260a:	20efb427          	fsd	fa4,520(t6)
    8000260e:	20ffb827          	fsd	fa5,528(t6)
    80002612:	210fbc27          	fsd	fa6,536(t6)
    80002616:	231fb027          	fsd	fa7,544(t6)
    8000261a:	232fb427          	fsd	fs2,552(t6)
    8000261e:	233fb827          	fsd	fs3,560(t6)
    80002622:	234fbc27          	fsd	fs4,568(t6)
    80002626:	255fb027          	fsd	fs5,576(t6)
    8000262a:	256fb427          	fsd	fs6,584(t6)
    8000262e:	257fb827          	fsd	fs7,592(t6)
    80002632:	258fbc27          	fsd	fs8,600(t6)
    80002636:	279fb027          	fsd	fs9,608(t6)
    8000263a:	27afb427          	fsd	fs10,616(t6)
    8000263e:	27bfb827          	fsd	fs11,624(t6)
    80002642:	27cfbc27          	fsd	ft8,632(t6)
    80002646:	29dfb027          	fsd	ft9,640(t6)
    8000264a:	29efb427          	fsd	ft10,648(t6)
    8000264e:	29ffb827          	fsd	ft11,656(t6)
    80002652:	30029073          	csrw	mstatus,t0
    80002656:	00001297          	auipc	t0,0x1
    8000265a:	9aa28293          	addi	t0,t0,-1622 # 80003000 <htif_communication_buffer>
    8000265e:	04000313          	li	t1,64
    80002662:	0062b023          	sd	t1,0(t0)
    80002666:	4305                	li	t1,1
    80002668:	0062b423          	sd	t1,8(t0)
    8000266c:	00001317          	auipc	t1,0x1
    80002670:	9d430313          	addi	t1,t1,-1580 # 80003040 <full_reg_dump_prefix_with_fp>
    80002674:	0062b823          	sd	t1,16(t0)
    80002678:	4321                	li	t1,8
    8000267a:	0062bc23          	sd	t1,24(t0)
    8000267e:	0ff0000f          	fence
    80002682:	ffffe317          	auipc	t1,0xffffe
    80002686:	97e30313          	addi	t1,t1,-1666 # 80000000 <tohost>
    8000268a:	00533023          	sd	t0,0(t1)

000000008000268e <wait_htif_print_9>:
    8000268e:	ffffe397          	auipc	t2,0xffffe
    80002692:	97a38393          	addi	t2,t2,-1670 # 80000008 <fromhost>
    80002696:	0003be03          	ld	t3,0(t2)
    8000269a:	fe0e0ae3          	beqz	t3,8000268e <wait_htif_print_9>
    8000269e:	0003b023          	sd	zero,0(t2)
    800026a2:	0ff0000f          	fence
    800026a6:	00001297          	auipc	t0,0x1
    800026aa:	95a28293          	addi	t0,t0,-1702 # 80003000 <htif_communication_buffer>
    800026ae:	04000313          	li	t1,64
    800026b2:	0062b023          	sd	t1,0(t0)
    800026b6:	4305                	li	t1,1
    800026b8:	0062b423          	sd	t1,8(t0)
    800026bc:	00002317          	auipc	t1,0x2
    800026c0:	94430313          	addi	t1,t1,-1724 # 80004000 <register_dump_buffer>
    800026c4:	0062b823          	sd	t1,16(t0)
    800026c8:	29800313          	li	t1,664
    800026cc:	0062bc23          	sd	t1,24(t0)
    800026d0:	0ff0000f          	fence
    800026d4:	ffffe317          	auipc	t1,0xffffe
    800026d8:	92c30313          	addi	t1,t1,-1748 # 80000000 <tohost>
    800026dc:	00533023          	sd	t0,0(t1)

00000000800026e0 <wait_htif_print_10>:
    800026e0:	ffffe397          	auipc	t2,0xffffe
    800026e4:	92838393          	addi	t2,t2,-1752 # 80000008 <fromhost>
    800026e8:	0003be03          	ld	t3,0(t2)
    800026ec:	fe0e0ae3          	beqz	t3,800026e0 <wait_htif_print_10>
    800026f0:	0003b023          	sd	zero,0(t2)
    800026f4:	0ff0000f          	fence
    800026f8:	34001073          	csrw	mscratch,zero
    800026fc:	340f9073          	csrw	mscratch,t6
    80002700:	00002f97          	auipc	t6,0x2
    80002704:	d48f8f93          	addi	t6,t6,-696 # 80004448 <framework_temp_save_area>
    80002708:	000fb283          	ld	t0,0(t6)
    8000270c:	008fb303          	ld	t1,8(t6)
    80002710:	010fb383          	ld	t2,16(t6)
    80002714:	018fbe03          	ld	t3,24(t6)
    80002718:	020fbe83          	ld	t4,32(t6)
    8000271c:	028fbf03          	ld	t5,40(t6)
    80002720:	030fbf83          	ld	t6,48(t6)
    80002724:	34002ff3          	csrr	t6,mscratch

    li x31, 0x5
    80002728:	4f95                	li	t6,5
    li t0, 0x1234ABCD
    8000272a:	1234b2b7          	lui	t0,0x1234b
    8000272e:	bcd2829b          	addiw	t0,t0,-1075 # 1234abcd <DUMP_SIZE_WITH_FP+0x1234a935>
    sw t0, 0(x31) # Address 0x5: Spike triggers Store/AMO address misaligned, Rocket triggers Store/AMO access fault (different exception types!)
    80002732:	005fa023          	sw	t0,0(t6)
    lw t0, 0(x31) # Address 0x5: Spike triggers Load address misaligned, Rocket triggers Load access fault (different exception types!)
    80002736:	000fa283          	lw	t0,0(t6)
    amoxor.w.aqrl x3, x9, (x31) # Address 0x5: Spike triggers Store/AMO address misaligned, Rocket triggers Store/AMO access fault (different exception types!)
    8000273a:	269fa1af          	amoxor.w.aqrl	gp,s1,(t6)
    DUMP_ALL_REGS framework_temp_save_area
    8000273e:	340f9073          	csrw	mscratch,t6
    80002742:	00002f97          	auipc	t6,0x2
    80002746:	d06f8f93          	addi	t6,t6,-762 # 80004448 <framework_temp_save_area>
    8000274a:	005fb023          	sd	t0,0(t6)
    8000274e:	006fb423          	sd	t1,8(t6)
    80002752:	007fb823          	sd	t2,16(t6)
    80002756:	01cfbc23          	sd	t3,24(t6)
    8000275a:	03dfb023          	sd	t4,32(t6)
    8000275e:	03efb423          	sd	t5,40(t6)
    80002762:	34002f73          	csrr	t5,mscratch
    80002766:	03efb823          	sd	t5,48(t6)
    8000276a:	34002ff3          	csrr	t6,mscratch
    8000276e:	340f9073          	csrw	mscratch,t6
    80002772:	00002f97          	auipc	t6,0x2
    80002776:	88ef8f93          	addi	t6,t6,-1906 # 80004000 <register_dump_buffer>
    8000277a:	000fb023          	sd	zero,0(t6)
    8000277e:	001fb423          	sd	ra,8(t6)
    80002782:	002fb823          	sd	sp,16(t6)
    80002786:	003fbc23          	sd	gp,24(t6)
    8000278a:	024fb023          	sd	tp,32(t6)
    8000278e:	025fb423          	sd	t0,40(t6)
    80002792:	026fb823          	sd	t1,48(t6)
    80002796:	027fbc23          	sd	t2,56(t6)
    8000279a:	048fb023          	sd	s0,64(t6)
    8000279e:	049fb423          	sd	s1,72(t6)
    800027a2:	04afb823          	sd	a0,80(t6)
    800027a6:	04bfbc23          	sd	a1,88(t6)
    800027aa:	06cfb023          	sd	a2,96(t6)
    800027ae:	06dfb423          	sd	a3,104(t6)
    800027b2:	06efb823          	sd	a4,112(t6)
    800027b6:	06ffbc23          	sd	a5,120(t6)
    800027ba:	090fb023          	sd	a6,128(t6)
    800027be:	091fb423          	sd	a7,136(t6)
    800027c2:	092fb823          	sd	s2,144(t6)
    800027c6:	093fbc23          	sd	s3,152(t6)
    800027ca:	0b4fb023          	sd	s4,160(t6)
    800027ce:	0b5fb423          	sd	s5,168(t6)
    800027d2:	0b6fb823          	sd	s6,176(t6)
    800027d6:	0b7fbc23          	sd	s7,184(t6)
    800027da:	0d8fb023          	sd	s8,192(t6)
    800027de:	0d9fb423          	sd	s9,200(t6)
    800027e2:	0dafb823          	sd	s10,208(t6)
    800027e6:	0dbfbc23          	sd	s11,216(t6)
    800027ea:	0fcfb023          	sd	t3,224(t6)
    800027ee:	0fdfb423          	sd	t4,232(t6)
    800027f2:	0fefb823          	sd	t5,240(t6)
    800027f6:	34002f73          	csrr	t5,mscratch
    800027fa:	0fefbc23          	sd	t5,248(t6)
    800027fe:	300022f3          	csrr	t0,mstatus
    80002802:	105fb023          	sd	t0,256(t6)
    80002806:	301022f3          	csrr	t0,misa
    8000280a:	105fb423          	sd	t0,264(t6)
    8000280e:	302022f3          	csrr	t0,medeleg
    80002812:	105fb823          	sd	t0,272(t6)
    80002816:	303022f3          	csrr	t0,mideleg
    8000281a:	105fbc23          	sd	t0,280(t6)
    8000281e:	304022f3          	csrr	t0,mie
    80002822:	125fb023          	sd	t0,288(t6)
    80002826:	305022f3          	csrr	t0,mtvec
    8000282a:	125fb423          	sd	t0,296(t6)
    8000282e:	306022f3          	csrr	t0,mcounteren
    80002832:	125fb823          	sd	t0,304(t6)
    80002836:	340022f3          	csrr	t0,mscratch
    8000283a:	125fbc23          	sd	t0,312(t6)
    8000283e:	341022f3          	csrr	t0,mepc
    80002842:	145fb023          	sd	t0,320(t6)
    80002846:	342022f3          	csrr	t0,mcause
    8000284a:	145fb423          	sd	t0,328(t6)
    8000284e:	343022f3          	csrr	t0,mtval
    80002852:	145fb823          	sd	t0,336(t6)
    80002856:	344022f3          	csrr	t0,mip
    8000285a:	145fbc23          	sd	t0,344(t6)
    8000285e:	b00022f3          	csrr	t0,mcycle
    80002862:	165fb023          	sd	t0,352(t6)
    80002866:	b02022f3          	csrr	t0,minstret
    8000286a:	165fb423          	sd	t0,360(t6)
    8000286e:	f11022f3          	csrr	t0,mvendorid
    80002872:	165fb823          	sd	t0,368(t6)
    80002876:	f12022f3          	csrr	t0,marchid
    8000287a:	165fbc23          	sd	t0,376(t6)
    8000287e:	f13022f3          	csrr	t0,mimpid
    80002882:	185fb023          	sd	t0,384(t6)
    80002886:	f14022f3          	csrr	t0,mhartid
    8000288a:	185fb423          	sd	t0,392(t6)
    8000288e:	300022f3          	csrr	t0,mstatus
    80002892:	6309                	lui	t1,0x2
    80002894:	0062e333          	or	t1,t0,t1
    80002898:	30031073          	csrw	mstatus,t1
    8000289c:	00302373          	frcsr	t1
    800028a0:	186fb823          	sd	t1,400(t6)
    800028a4:	180fbc27          	fsd	ft0,408(t6)
    800028a8:	1a1fb027          	fsd	ft1,416(t6)
    800028ac:	1a2fb427          	fsd	ft2,424(t6)
    800028b0:	1a3fb827          	fsd	ft3,432(t6)
    800028b4:	1a4fbc27          	fsd	ft4,440(t6)
    800028b8:	1c5fb027          	fsd	ft5,448(t6)
    800028bc:	1c6fb427          	fsd	ft6,456(t6)
    800028c0:	1c7fb827          	fsd	ft7,464(t6)
    800028c4:	1c8fbc27          	fsd	fs0,472(t6)
    800028c8:	1e9fb027          	fsd	fs1,480(t6)
    800028cc:	1eafb427          	fsd	fa0,488(t6)
    800028d0:	1ebfb827          	fsd	fa1,496(t6)
    800028d4:	1ecfbc27          	fsd	fa2,504(t6)
    800028d8:	20dfb027          	fsd	fa3,512(t6)
    800028dc:	20efb427          	fsd	fa4,520(t6)
    800028e0:	20ffb827          	fsd	fa5,528(t6)
    800028e4:	210fbc27          	fsd	fa6,536(t6)
    800028e8:	231fb027          	fsd	fa7,544(t6)
    800028ec:	232fb427          	fsd	fs2,552(t6)
    800028f0:	233fb827          	fsd	fs3,560(t6)
    800028f4:	234fbc27          	fsd	fs4,568(t6)
    800028f8:	255fb027          	fsd	fs5,576(t6)
    800028fc:	256fb427          	fsd	fs6,584(t6)
    80002900:	257fb827          	fsd	fs7,592(t6)
    80002904:	258fbc27          	fsd	fs8,600(t6)
    80002908:	279fb027          	fsd	fs9,608(t6)
    8000290c:	27afb427          	fsd	fs10,616(t6)
    80002910:	27bfb827          	fsd	fs11,624(t6)
    80002914:	27cfbc27          	fsd	ft8,632(t6)
    80002918:	29dfb027          	fsd	ft9,640(t6)
    8000291c:	29efb427          	fsd	ft10,648(t6)
    80002920:	29ffb827          	fsd	ft11,656(t6)
    80002924:	30029073          	csrw	mstatus,t0
    80002928:	00000297          	auipc	t0,0x0
    8000292c:	6d828293          	addi	t0,t0,1752 # 80003000 <htif_communication_buffer>
    80002930:	04000313          	li	t1,64
    80002934:	0062b023          	sd	t1,0(t0)
    80002938:	4305                	li	t1,1
    8000293a:	0062b423          	sd	t1,8(t0)
    8000293e:	00000317          	auipc	t1,0x0
    80002942:	70230313          	addi	t1,t1,1794 # 80003040 <full_reg_dump_prefix_with_fp>
    80002946:	0062b823          	sd	t1,16(t0)
    8000294a:	4321                	li	t1,8
    8000294c:	0062bc23          	sd	t1,24(t0)
    80002950:	0ff0000f          	fence
    80002954:	ffffd317          	auipc	t1,0xffffd
    80002958:	6ac30313          	addi	t1,t1,1708 # 80000000 <tohost>
    8000295c:	00533023          	sd	t0,0(t1)

0000000080002960 <wait_htif_print_15>:
    80002960:	ffffd397          	auipc	t2,0xffffd
    80002964:	6a838393          	addi	t2,t2,1704 # 80000008 <fromhost>
    80002968:	0003be03          	ld	t3,0(t2)
    8000296c:	fe0e0ae3          	beqz	t3,80002960 <wait_htif_print_15>
    80002970:	0003b023          	sd	zero,0(t2)
    80002974:	0ff0000f          	fence
    80002978:	00000297          	auipc	t0,0x0
    8000297c:	68828293          	addi	t0,t0,1672 # 80003000 <htif_communication_buffer>
    80002980:	04000313          	li	t1,64
    80002984:	0062b023          	sd	t1,0(t0)
    80002988:	4305                	li	t1,1
    8000298a:	0062b423          	sd	t1,8(t0)
    8000298e:	00001317          	auipc	t1,0x1
    80002992:	67230313          	addi	t1,t1,1650 # 80004000 <register_dump_buffer>
    80002996:	0062b823          	sd	t1,16(t0)
    8000299a:	29800313          	li	t1,664
    8000299e:	0062bc23          	sd	t1,24(t0)
    800029a2:	0ff0000f          	fence
    800029a6:	ffffd317          	auipc	t1,0xffffd
    800029aa:	65a30313          	addi	t1,t1,1626 # 80000000 <tohost>
    800029ae:	00533023          	sd	t0,0(t1)

00000000800029b2 <wait_htif_print_16>:
    800029b2:	ffffd397          	auipc	t2,0xffffd
    800029b6:	65638393          	addi	t2,t2,1622 # 80000008 <fromhost>
    800029ba:	0003be03          	ld	t3,0(t2)
    800029be:	fe0e0ae3          	beqz	t3,800029b2 <wait_htif_print_16>
    800029c2:	0003b023          	sd	zero,0(t2)
    800029c6:	0ff0000f          	fence
    800029ca:	34001073          	csrw	mscratch,zero
    800029ce:	340f9073          	csrw	mscratch,t6
    800029d2:	00002f97          	auipc	t6,0x2
    800029d6:	a76f8f93          	addi	t6,t6,-1418 # 80004448 <framework_temp_save_area>
    800029da:	000fb283          	ld	t0,0(t6)
    800029de:	008fb303          	ld	t1,8(t6)
    800029e2:	010fb383          	ld	t2,16(t6)
    800029e6:	018fbe03          	ld	t3,24(t6)
    800029ea:	020fbe83          	ld	t4,32(t6)
    800029ee:	028fbf03          	ld	t5,40(t6)
    800029f2:	030fbf83          	ld	t6,48(t6)
    800029f6:	34002ff3          	csrr	t6,mscratch

    li x31, 0xFFFFFFE1
    800029fa:	00100f9b          	addiw	t6,zero,1
    800029fe:	1f82                	slli	t6,t6,0x20
    80002a00:	1f85                	addi	t6,t6,-31
    li t0, 0x1234ABCD
    80002a02:	1234b2b7          	lui	t0,0x1234b
    80002a06:	bcd2829b          	addiw	t0,t0,-1075 # 1234abcd <DUMP_SIZE_WITH_FP+0x1234a935>
    sw t0, 0(x31) # Address 0xFFFFFFE1: Spike triggers Store/AMO address misaligned, Rocket triggers Store/AMO access fault (different exception types!)
    80002a0a:	005fa023          	sw	t0,0(t6)
    lw t0, 0(x31) # Address 0xFFFFFFE1: Spike triggers Load address misaligned, Rocket triggers Load access fault (different exception types!)
    80002a0e:	000fa283          	lw	t0,0(t6)
    amoxor.w.aqrl x3, x9, (x31) # Address 0xFFFFFFE1: Spike triggers Store/AMO address misaligned, Rocket triggers Store/AMO access fault (different exception types!)
    80002a12:	269fa1af          	amoxor.w.aqrl	gp,s1,(t6)
    DUMP_ALL_REGS framework_temp_save_area
    80002a16:	340f9073          	csrw	mscratch,t6
    80002a1a:	00002f97          	auipc	t6,0x2
    80002a1e:	a2ef8f93          	addi	t6,t6,-1490 # 80004448 <framework_temp_save_area>
    80002a22:	005fb023          	sd	t0,0(t6)
    80002a26:	006fb423          	sd	t1,8(t6)
    80002a2a:	007fb823          	sd	t2,16(t6)
    80002a2e:	01cfbc23          	sd	t3,24(t6)
    80002a32:	03dfb023          	sd	t4,32(t6)
    80002a36:	03efb423          	sd	t5,40(t6)
    80002a3a:	34002f73          	csrr	t5,mscratch
    80002a3e:	03efb823          	sd	t5,48(t6)
    80002a42:	34002ff3          	csrr	t6,mscratch
    80002a46:	340f9073          	csrw	mscratch,t6
    80002a4a:	00001f97          	auipc	t6,0x1
    80002a4e:	5b6f8f93          	addi	t6,t6,1462 # 80004000 <register_dump_buffer>
    80002a52:	000fb023          	sd	zero,0(t6)
    80002a56:	001fb423          	sd	ra,8(t6)
    80002a5a:	002fb823          	sd	sp,16(t6)
    80002a5e:	003fbc23          	sd	gp,24(t6)
    80002a62:	024fb023          	sd	tp,32(t6)
    80002a66:	025fb423          	sd	t0,40(t6)
    80002a6a:	026fb823          	sd	t1,48(t6)
    80002a6e:	027fbc23          	sd	t2,56(t6)
    80002a72:	048fb023          	sd	s0,64(t6)
    80002a76:	049fb423          	sd	s1,72(t6)
    80002a7a:	04afb823          	sd	a0,80(t6)
    80002a7e:	04bfbc23          	sd	a1,88(t6)
    80002a82:	06cfb023          	sd	a2,96(t6)
    80002a86:	06dfb423          	sd	a3,104(t6)
    80002a8a:	06efb823          	sd	a4,112(t6)
    80002a8e:	06ffbc23          	sd	a5,120(t6)
    80002a92:	090fb023          	sd	a6,128(t6)
    80002a96:	091fb423          	sd	a7,136(t6)
    80002a9a:	092fb823          	sd	s2,144(t6)
    80002a9e:	093fbc23          	sd	s3,152(t6)
    80002aa2:	0b4fb023          	sd	s4,160(t6)
    80002aa6:	0b5fb423          	sd	s5,168(t6)
    80002aaa:	0b6fb823          	sd	s6,176(t6)
    80002aae:	0b7fbc23          	sd	s7,184(t6)
    80002ab2:	0d8fb023          	sd	s8,192(t6)
    80002ab6:	0d9fb423          	sd	s9,200(t6)
    80002aba:	0dafb823          	sd	s10,208(t6)
    80002abe:	0dbfbc23          	sd	s11,216(t6)
    80002ac2:	0fcfb023          	sd	t3,224(t6)
    80002ac6:	0fdfb423          	sd	t4,232(t6)
    80002aca:	0fefb823          	sd	t5,240(t6)
    80002ace:	34002f73          	csrr	t5,mscratch
    80002ad2:	0fefbc23          	sd	t5,248(t6)
    80002ad6:	300022f3          	csrr	t0,mstatus
    80002ada:	105fb023          	sd	t0,256(t6)
    80002ade:	301022f3          	csrr	t0,misa
    80002ae2:	105fb423          	sd	t0,264(t6)
    80002ae6:	302022f3          	csrr	t0,medeleg
    80002aea:	105fb823          	sd	t0,272(t6)
    80002aee:	303022f3          	csrr	t0,mideleg
    80002af2:	105fbc23          	sd	t0,280(t6)
    80002af6:	304022f3          	csrr	t0,mie
    80002afa:	125fb023          	sd	t0,288(t6)
    80002afe:	305022f3          	csrr	t0,mtvec
    80002b02:	125fb423          	sd	t0,296(t6)
    80002b06:	306022f3          	csrr	t0,mcounteren
    80002b0a:	125fb823          	sd	t0,304(t6)
    80002b0e:	340022f3          	csrr	t0,mscratch
    80002b12:	125fbc23          	sd	t0,312(t6)
    80002b16:	341022f3          	csrr	t0,mepc
    80002b1a:	145fb023          	sd	t0,320(t6)
    80002b1e:	342022f3          	csrr	t0,mcause
    80002b22:	145fb423          	sd	t0,328(t6)
    80002b26:	343022f3          	csrr	t0,mtval
    80002b2a:	145fb823          	sd	t0,336(t6)
    80002b2e:	344022f3          	csrr	t0,mip
    80002b32:	145fbc23          	sd	t0,344(t6)
    80002b36:	b00022f3          	csrr	t0,mcycle
    80002b3a:	165fb023          	sd	t0,352(t6)
    80002b3e:	b02022f3          	csrr	t0,minstret
    80002b42:	165fb423          	sd	t0,360(t6)
    80002b46:	f11022f3          	csrr	t0,mvendorid
    80002b4a:	165fb823          	sd	t0,368(t6)
    80002b4e:	f12022f3          	csrr	t0,marchid
    80002b52:	165fbc23          	sd	t0,376(t6)
    80002b56:	f13022f3          	csrr	t0,mimpid
    80002b5a:	185fb023          	sd	t0,384(t6)
    80002b5e:	f14022f3          	csrr	t0,mhartid
    80002b62:	185fb423          	sd	t0,392(t6)
    80002b66:	300022f3          	csrr	t0,mstatus
    80002b6a:	6309                	lui	t1,0x2
    80002b6c:	0062e333          	or	t1,t0,t1
    80002b70:	30031073          	csrw	mstatus,t1
    80002b74:	00302373          	frcsr	t1
    80002b78:	186fb823          	sd	t1,400(t6)
    80002b7c:	180fbc27          	fsd	ft0,408(t6)
    80002b80:	1a1fb027          	fsd	ft1,416(t6)
    80002b84:	1a2fb427          	fsd	ft2,424(t6)
    80002b88:	1a3fb827          	fsd	ft3,432(t6)
    80002b8c:	1a4fbc27          	fsd	ft4,440(t6)
    80002b90:	1c5fb027          	fsd	ft5,448(t6)
    80002b94:	1c6fb427          	fsd	ft6,456(t6)
    80002b98:	1c7fb827          	fsd	ft7,464(t6)
    80002b9c:	1c8fbc27          	fsd	fs0,472(t6)
    80002ba0:	1e9fb027          	fsd	fs1,480(t6)
    80002ba4:	1eafb427          	fsd	fa0,488(t6)
    80002ba8:	1ebfb827          	fsd	fa1,496(t6)
    80002bac:	1ecfbc27          	fsd	fa2,504(t6)
    80002bb0:	20dfb027          	fsd	fa3,512(t6)
    80002bb4:	20efb427          	fsd	fa4,520(t6)
    80002bb8:	20ffb827          	fsd	fa5,528(t6)
    80002bbc:	210fbc27          	fsd	fa6,536(t6)
    80002bc0:	231fb027          	fsd	fa7,544(t6)
    80002bc4:	232fb427          	fsd	fs2,552(t6)
    80002bc8:	233fb827          	fsd	fs3,560(t6)
    80002bcc:	234fbc27          	fsd	fs4,568(t6)
    80002bd0:	255fb027          	fsd	fs5,576(t6)
    80002bd4:	256fb427          	fsd	fs6,584(t6)
    80002bd8:	257fb827          	fsd	fs7,592(t6)
    80002bdc:	258fbc27          	fsd	fs8,600(t6)
    80002be0:	279fb027          	fsd	fs9,608(t6)
    80002be4:	27afb427          	fsd	fs10,616(t6)
    80002be8:	27bfb827          	fsd	fs11,624(t6)
    80002bec:	27cfbc27          	fsd	ft8,632(t6)
    80002bf0:	29dfb027          	fsd	ft9,640(t6)
    80002bf4:	29efb427          	fsd	ft10,648(t6)
    80002bf8:	29ffb827          	fsd	ft11,656(t6)
    80002bfc:	30029073          	csrw	mstatus,t0
    80002c00:	00000297          	auipc	t0,0x0
    80002c04:	40028293          	addi	t0,t0,1024 # 80003000 <htif_communication_buffer>
    80002c08:	04000313          	li	t1,64
    80002c0c:	0062b023          	sd	t1,0(t0)
    80002c10:	4305                	li	t1,1
    80002c12:	0062b423          	sd	t1,8(t0)
    80002c16:	00000317          	auipc	t1,0x0
    80002c1a:	42a30313          	addi	t1,t1,1066 # 80003040 <full_reg_dump_prefix_with_fp>
    80002c1e:	0062b823          	sd	t1,16(t0)
    80002c22:	4321                	li	t1,8
    80002c24:	0062bc23          	sd	t1,24(t0)
    80002c28:	0ff0000f          	fence
    80002c2c:	ffffd317          	auipc	t1,0xffffd
    80002c30:	3d430313          	addi	t1,t1,980 # 80000000 <tohost>
    80002c34:	00533023          	sd	t0,0(t1)

0000000080002c38 <wait_htif_print_21>:
    80002c38:	ffffd397          	auipc	t2,0xffffd
    80002c3c:	3d038393          	addi	t2,t2,976 # 80000008 <fromhost>
    80002c40:	0003be03          	ld	t3,0(t2)
    80002c44:	fe0e0ae3          	beqz	t3,80002c38 <wait_htif_print_21>
    80002c48:	0003b023          	sd	zero,0(t2)
    80002c4c:	0ff0000f          	fence
    80002c50:	00000297          	auipc	t0,0x0
    80002c54:	3b028293          	addi	t0,t0,944 # 80003000 <htif_communication_buffer>
    80002c58:	04000313          	li	t1,64
    80002c5c:	0062b023          	sd	t1,0(t0)
    80002c60:	4305                	li	t1,1
    80002c62:	0062b423          	sd	t1,8(t0)
    80002c66:	00001317          	auipc	t1,0x1
    80002c6a:	39a30313          	addi	t1,t1,922 # 80004000 <register_dump_buffer>
    80002c6e:	0062b823          	sd	t1,16(t0)
    80002c72:	29800313          	li	t1,664
    80002c76:	0062bc23          	sd	t1,24(t0)
    80002c7a:	0ff0000f          	fence
    80002c7e:	ffffd317          	auipc	t1,0xffffd
    80002c82:	38230313          	addi	t1,t1,898 # 80000000 <tohost>
    80002c86:	00533023          	sd	t0,0(t1)

0000000080002c8a <wait_htif_print_22>:
    80002c8a:	ffffd397          	auipc	t2,0xffffd
    80002c8e:	37e38393          	addi	t2,t2,894 # 80000008 <fromhost>
    80002c92:	0003be03          	ld	t3,0(t2)
    80002c96:	fe0e0ae3          	beqz	t3,80002c8a <wait_htif_print_22>
    80002c9a:	0003b023          	sd	zero,0(t2)
    80002c9e:	0ff0000f          	fence
    80002ca2:	34001073          	csrw	mscratch,zero
    80002ca6:	340f9073          	csrw	mscratch,t6
    80002caa:	00001f97          	auipc	t6,0x1
    80002cae:	79ef8f93          	addi	t6,t6,1950 # 80004448 <framework_temp_save_area>
    80002cb2:	000fb283          	ld	t0,0(t6)
    80002cb6:	008fb303          	ld	t1,8(t6)
    80002cba:	010fb383          	ld	t2,16(t6)
    80002cbe:	018fbe03          	ld	t3,24(t6)
    80002cc2:	020fbe83          	ld	t4,32(t6)
    80002cc6:	028fbf03          	ld	t5,40(t6)
    80002cca:	030fbf83          	ld	t6,48(t6)
    80002cce:	34002ff3          	csrr	t6,mscratch

    li x31, 0xFFFFFFEC
    80002cd2:	00100f9b          	addiw	t6,zero,1
    80002cd6:	1f82                	slli	t6,t6,0x20
    80002cd8:	1fb1                	addi	t6,t6,-20
    li t0, 0x1234ABCD
    80002cda:	1234b2b7          	lui	t0,0x1234b
    80002cde:	bcd2829b          	addiw	t0,t0,-1075 # 1234abcd <DUMP_SIZE_WITH_FP+0x1234a935>
    sw t0, 0(x31) # Address 0xFFFFFFEC: Spike executes normally (no exception), Rocket triggers Store/AMO access fault (completely different behavior!)
    80002ce2:	005fa023          	sw	t0,0(t6)
    lw t0, 0(x31) # Address 0xFFFFFFEC: Spike executes normally (no exception), Rocket triggers Load access fault (completely different behavior!)
    80002ce6:	000fa283          	lw	t0,0(t6)
    amoxor.w.aqrl x3, x9, (x31) # Address 0xFFFFFFEC: Spike executes normally (no exception), Rocket triggers Store/AMO access fault (completely different behavior!)
    80002cea:	269fa1af          	amoxor.w.aqrl	gp,s1,(t6)
    DUMP_ALL_REGS framework_temp_save_area # Result: Rocket keeps x3=0xDEADBEEF (exception prevents execution), Spike successfully executes to get x3=0x1234ABCD
    80002cee:	340f9073          	csrw	mscratch,t6
    80002cf2:	00001f97          	auipc	t6,0x1
    80002cf6:	756f8f93          	addi	t6,t6,1878 # 80004448 <framework_temp_save_area>
    80002cfa:	005fb023          	sd	t0,0(t6)
    80002cfe:	006fb423          	sd	t1,8(t6)
    80002d02:	007fb823          	sd	t2,16(t6)
    80002d06:	01cfbc23          	sd	t3,24(t6)
    80002d0a:	03dfb023          	sd	t4,32(t6)
    80002d0e:	03efb423          	sd	t5,40(t6)
    80002d12:	34002f73          	csrr	t5,mscratch
    80002d16:	03efb823          	sd	t5,48(t6)
    80002d1a:	34002ff3          	csrr	t6,mscratch
    80002d1e:	340f9073          	csrw	mscratch,t6
    80002d22:	00001f97          	auipc	t6,0x1
    80002d26:	2def8f93          	addi	t6,t6,734 # 80004000 <register_dump_buffer>
    80002d2a:	000fb023          	sd	zero,0(t6)
    80002d2e:	001fb423          	sd	ra,8(t6)
    80002d32:	002fb823          	sd	sp,16(t6)
    80002d36:	003fbc23          	sd	gp,24(t6)
    80002d3a:	024fb023          	sd	tp,32(t6)
    80002d3e:	025fb423          	sd	t0,40(t6)
    80002d42:	026fb823          	sd	t1,48(t6)
    80002d46:	027fbc23          	sd	t2,56(t6)
    80002d4a:	048fb023          	sd	s0,64(t6)
    80002d4e:	049fb423          	sd	s1,72(t6)
    80002d52:	04afb823          	sd	a0,80(t6)
    80002d56:	04bfbc23          	sd	a1,88(t6)
    80002d5a:	06cfb023          	sd	a2,96(t6)
    80002d5e:	06dfb423          	sd	a3,104(t6)
    80002d62:	06efb823          	sd	a4,112(t6)
    80002d66:	06ffbc23          	sd	a5,120(t6)
    80002d6a:	090fb023          	sd	a6,128(t6)
    80002d6e:	091fb423          	sd	a7,136(t6)
    80002d72:	092fb823          	sd	s2,144(t6)
    80002d76:	093fbc23          	sd	s3,152(t6)
    80002d7a:	0b4fb023          	sd	s4,160(t6)
    80002d7e:	0b5fb423          	sd	s5,168(t6)
    80002d82:	0b6fb823          	sd	s6,176(t6)
    80002d86:	0b7fbc23          	sd	s7,184(t6)
    80002d8a:	0d8fb023          	sd	s8,192(t6)
    80002d8e:	0d9fb423          	sd	s9,200(t6)
    80002d92:	0dafb823          	sd	s10,208(t6)
    80002d96:	0dbfbc23          	sd	s11,216(t6)
    80002d9a:	0fcfb023          	sd	t3,224(t6)
    80002d9e:	0fdfb423          	sd	t4,232(t6)
    80002da2:	0fefb823          	sd	t5,240(t6)
    80002da6:	34002f73          	csrr	t5,mscratch
    80002daa:	0fefbc23          	sd	t5,248(t6)
    80002dae:	300022f3          	csrr	t0,mstatus
    80002db2:	105fb023          	sd	t0,256(t6)
    80002db6:	301022f3          	csrr	t0,misa
    80002dba:	105fb423          	sd	t0,264(t6)
    80002dbe:	302022f3          	csrr	t0,medeleg
    80002dc2:	105fb823          	sd	t0,272(t6)
    80002dc6:	303022f3          	csrr	t0,mideleg
    80002dca:	105fbc23          	sd	t0,280(t6)
    80002dce:	304022f3          	csrr	t0,mie
    80002dd2:	125fb023          	sd	t0,288(t6)
    80002dd6:	305022f3          	csrr	t0,mtvec
    80002dda:	125fb423          	sd	t0,296(t6)
    80002dde:	306022f3          	csrr	t0,mcounteren
    80002de2:	125fb823          	sd	t0,304(t6)
    80002de6:	340022f3          	csrr	t0,mscratch
    80002dea:	125fbc23          	sd	t0,312(t6)
    80002dee:	341022f3          	csrr	t0,mepc
    80002df2:	145fb023          	sd	t0,320(t6)
    80002df6:	342022f3          	csrr	t0,mcause
    80002dfa:	145fb423          	sd	t0,328(t6)
    80002dfe:	343022f3          	csrr	t0,mtval
    80002e02:	145fb823          	sd	t0,336(t6)
    80002e06:	344022f3          	csrr	t0,mip
    80002e0a:	145fbc23          	sd	t0,344(t6)
    80002e0e:	b00022f3          	csrr	t0,mcycle
    80002e12:	165fb023          	sd	t0,352(t6)
    80002e16:	b02022f3          	csrr	t0,minstret
    80002e1a:	165fb423          	sd	t0,360(t6)
    80002e1e:	f11022f3          	csrr	t0,mvendorid
    80002e22:	165fb823          	sd	t0,368(t6)
    80002e26:	f12022f3          	csrr	t0,marchid
    80002e2a:	165fbc23          	sd	t0,376(t6)
    80002e2e:	f13022f3          	csrr	t0,mimpid
    80002e32:	185fb023          	sd	t0,384(t6)
    80002e36:	f14022f3          	csrr	t0,mhartid
    80002e3a:	185fb423          	sd	t0,392(t6)
    80002e3e:	300022f3          	csrr	t0,mstatus
    80002e42:	6309                	lui	t1,0x2
    80002e44:	0062e333          	or	t1,t0,t1
    80002e48:	30031073          	csrw	mstatus,t1
    80002e4c:	00302373          	frcsr	t1
    80002e50:	186fb823          	sd	t1,400(t6)
    80002e54:	180fbc27          	fsd	ft0,408(t6)
    80002e58:	1a1fb027          	fsd	ft1,416(t6)
    80002e5c:	1a2fb427          	fsd	ft2,424(t6)
    80002e60:	1a3fb827          	fsd	ft3,432(t6)
    80002e64:	1a4fbc27          	fsd	ft4,440(t6)
    80002e68:	1c5fb027          	fsd	ft5,448(t6)
    80002e6c:	1c6fb427          	fsd	ft6,456(t6)
    80002e70:	1c7fb827          	fsd	ft7,464(t6)
    80002e74:	1c8fbc27          	fsd	fs0,472(t6)
    80002e78:	1e9fb027          	fsd	fs1,480(t6)
    80002e7c:	1eafb427          	fsd	fa0,488(t6)
    80002e80:	1ebfb827          	fsd	fa1,496(t6)
    80002e84:	1ecfbc27          	fsd	fa2,504(t6)
    80002e88:	20dfb027          	fsd	fa3,512(t6)
    80002e8c:	20efb427          	fsd	fa4,520(t6)
    80002e90:	20ffb827          	fsd	fa5,528(t6)
    80002e94:	210fbc27          	fsd	fa6,536(t6)
    80002e98:	231fb027          	fsd	fa7,544(t6)
    80002e9c:	232fb427          	fsd	fs2,552(t6)
    80002ea0:	233fb827          	fsd	fs3,560(t6)
    80002ea4:	234fbc27          	fsd	fs4,568(t6)
    80002ea8:	255fb027          	fsd	fs5,576(t6)
    80002eac:	256fb427          	fsd	fs6,584(t6)
    80002eb0:	257fb827          	fsd	fs7,592(t6)
    80002eb4:	258fbc27          	fsd	fs8,600(t6)
    80002eb8:	279fb027          	fsd	fs9,608(t6)
    80002ebc:	27afb427          	fsd	fs10,616(t6)
    80002ec0:	27bfb827          	fsd	fs11,624(t6)
    80002ec4:	27cfbc27          	fsd	ft8,632(t6)
    80002ec8:	29dfb027          	fsd	ft9,640(t6)
    80002ecc:	29efb427          	fsd	ft10,648(t6)
    80002ed0:	29ffb827          	fsd	ft11,656(t6)
    80002ed4:	30029073          	csrw	mstatus,t0
    80002ed8:	00000297          	auipc	t0,0x0
    80002edc:	12828293          	addi	t0,t0,296 # 80003000 <htif_communication_buffer>
    80002ee0:	04000313          	li	t1,64
    80002ee4:	0062b023          	sd	t1,0(t0)
    80002ee8:	4305                	li	t1,1
    80002eea:	0062b423          	sd	t1,8(t0)
    80002eee:	00000317          	auipc	t1,0x0
    80002ef2:	15230313          	addi	t1,t1,338 # 80003040 <full_reg_dump_prefix_with_fp>
    80002ef6:	0062b823          	sd	t1,16(t0)
    80002efa:	4321                	li	t1,8
    80002efc:	0062bc23          	sd	t1,24(t0)
    80002f00:	0ff0000f          	fence
    80002f04:	ffffd317          	auipc	t1,0xffffd
    80002f08:	0fc30313          	addi	t1,t1,252 # 80000000 <tohost>
    80002f0c:	00533023          	sd	t0,0(t1)

0000000080002f10 <wait_htif_print_27>:
    80002f10:	ffffd397          	auipc	t2,0xffffd
    80002f14:	0f838393          	addi	t2,t2,248 # 80000008 <fromhost>
    80002f18:	0003be03          	ld	t3,0(t2)
    80002f1c:	fe0e0ae3          	beqz	t3,80002f10 <wait_htif_print_27>
    80002f20:	0003b023          	sd	zero,0(t2)
    80002f24:	0ff0000f          	fence
    80002f28:	00000297          	auipc	t0,0x0
    80002f2c:	0d828293          	addi	t0,t0,216 # 80003000 <htif_communication_buffer>
    80002f30:	04000313          	li	t1,64
    80002f34:	0062b023          	sd	t1,0(t0)
    80002f38:	4305                	li	t1,1
    80002f3a:	0062b423          	sd	t1,8(t0)
    80002f3e:	00001317          	auipc	t1,0x1
    80002f42:	0c230313          	addi	t1,t1,194 # 80004000 <register_dump_buffer>
    80002f46:	0062b823          	sd	t1,16(t0)
    80002f4a:	29800313          	li	t1,664
    80002f4e:	0062bc23          	sd	t1,24(t0)
    80002f52:	0ff0000f          	fence
    80002f56:	ffffd317          	auipc	t1,0xffffd
    80002f5a:	0aa30313          	addi	t1,t1,170 # 80000000 <tohost>
    80002f5e:	00533023          	sd	t0,0(t1)

0000000080002f62 <wait_htif_print_28>:
    80002f62:	ffffd397          	auipc	t2,0xffffd
    80002f66:	0a638393          	addi	t2,t2,166 # 80000008 <fromhost>
    80002f6a:	0003be03          	ld	t3,0(t2)
    80002f6e:	fe0e0ae3          	beqz	t3,80002f62 <wait_htif_print_28>
    80002f72:	0003b023          	sd	zero,0(t2)
    80002f76:	0ff0000f          	fence
    80002f7a:	34001073          	csrw	mscratch,zero
    80002f7e:	340f9073          	csrw	mscratch,t6
    80002f82:	00001f97          	auipc	t6,0x1
    80002f86:	4c6f8f93          	addi	t6,t6,1222 # 80004448 <framework_temp_save_area>
    80002f8a:	000fb283          	ld	t0,0(t6)
    80002f8e:	008fb303          	ld	t1,8(t6)
    80002f92:	010fb383          	ld	t2,16(t6)
    80002f96:	018fbe03          	ld	t3,24(t6)
    80002f9a:	020fbe83          	ld	t4,32(t6)
    80002f9e:	028fbf03          	ld	t5,40(t6)
    80002fa2:	030fbf83          	ld	t6,48(t6)
    80002fa6:	34002ff3          	csrr	t6,mscratch

0000000080002faa <_exit>:

_exit:
    EXIT_SIM
    80002faa:	4285                	li	t0,1
    80002fac:	ffffd317          	auipc	t1,0xffffd
    80002fb0:	05430313          	addi	t1,t1,84 # 80000000 <tohost>
    80002fb4:	00533023          	sd	t0,0(t1)

0000000080002fb8 <infinite_exit_loop_30>:
    80002fb8:	a001                	j	80002fb8 <infinite_exit_loop_30>
